target datalayout = "e-m:e-p270:32:32-p271:32:32-p272:64:64-i64:64-i128:128-f80:128-n8:16:32:64-S128"
target triple = "x86_64-pc-linux-gnu"

%struct.self_test_arg = type { i32 }
%struct.ossl_param_st = type { ptr, i32, ptr, i64, i64 }

@bio_out = external global ptr, align 8
@.str.23 = private unnamed_addr constant [5 x i8] c"\0A%s\0A\00", align 1
@.str.24 = private unnamed_addr constant [9 x i8] c"st-phase\00", align 1
@.str.25 = private unnamed_addr constant [8 x i8] c"st-desc\00", align 1
@.str.26 = private unnamed_addr constant [8 x i8] c"st-type\00", align 1
@.str.27 = private unnamed_addr constant [6 x i8] c"Start\00", align 1
@.str.28 = private unnamed_addr constant [13 x i8] c"%s : (%s) : \00", align 1
@.str.29 = private unnamed_addr constant [5 x i8] c"Pass\00", align 1
@.str.30 = private unnamed_addr constant [5 x i8] c"Fail\00", align 1
@.str.31 = private unnamed_addr constant [4 x i8] c"%s\0A\00", align 1
@.str.32 = private unnamed_addr constant [8 x i8] c"Corrupt\00", align 1

; Function Attrs: nounwind uwtable
define internal i32 @self_test_events(ptr noundef %0, ptr noundef %1, ptr noundef %2, i32 noundef %3) #0 {
  %5 = alloca ptr, align 8
  %6 = alloca ptr, align 8
  %7 = alloca ptr, align 8
  %8 = alloca i32, align 4
  %9 = alloca ptr, align 8
  %10 = alloca ptr, align 8
  %11 = alloca ptr, align 8
  %12 = alloca ptr, align 8
  %13 = alloca ptr, align 8
  %14 = alloca i32, align 4
  store ptr %0, ptr %5, align 8, !tbaa !17
  store ptr %1, ptr %6, align 8, !tbaa !19
  store ptr %2, ptr %7, align 8, !tbaa !4
  store i32 %3, ptr %8, align 4, !tbaa !9
  call void @llvm.lifetime.start.p0(i64 8, ptr %9) #5
  %15 = load ptr, ptr %6, align 8, !tbaa !19
  store ptr %15, ptr %9, align 8, !tbaa !31
  call void @llvm.lifetime.start.p0(i64 8, ptr %10) #5
  store ptr null, ptr %10, align 8, !tbaa !17
  call void @llvm.lifetime.start.p0(i64 8, ptr %11) #5
  store ptr null, ptr %11, align 8, !tbaa !4
  call void @llvm.lifetime.start.p0(i64 8, ptr %12) #5
  store ptr null, ptr %12, align 8, !tbaa !4
  call void @llvm.lifetime.start.p0(i64 8, ptr %13) #5
  store ptr null, ptr %13, align 8, !tbaa !4
  call void @llvm.lifetime.start.p0(i64 4, ptr %14) #5
  store i32 0, ptr %14, align 4, !tbaa !9
  %16 = load ptr, ptr %9, align 8, !tbaa !31
  %17 = getelementptr inbounds nuw %struct.self_test_arg, ptr %16, i32 0, i32 0
  %18 = load i32, ptr %17, align 4, !tbaa !15
  %19 = icmp eq i32 %18, 0
  br i1 %19, label %20, label %24

20:                                               ; preds = %4
  %21 = load ptr, ptr @bio_out, align 8, !tbaa !33
  %22 = load ptr, ptr %7, align 8, !tbaa !4
  %23 = call i32 (ptr, ptr, ...) @BIO_printf(ptr noundef %21, ptr noundef @.str.23, ptr noundef %22)
  br label %24

24:                                               ; preds = %20, %4
  %25 = load ptr, ptr %9, align 8, !tbaa !31
  %26 = getelementptr inbounds nuw %struct.self_test_arg, ptr %25, i32 0, i32 0
  %27 = load i32, ptr %26, align 4, !tbaa !15
  %28 = add nsw i32 %27, 1
  store i32 %28, ptr %26, align 4, !tbaa !15
  %29 = load ptr, ptr %5, align 8, !tbaa !17
  %30 = call ptr @OSSL_PARAM_locate_const(ptr noundef %29, ptr noundef @.str.24)
  store ptr %30, ptr %10, align 8, !tbaa !17
  %31 = load ptr, ptr %10, align 8, !tbaa !17
  %32 = icmp eq ptr %31, null
  br i1 %32, label %38, label %33

33:                                               ; preds = %24
  %34 = load ptr, ptr %10, align 8, !tbaa !17
  %35 = getelementptr inbounds nuw %struct.ossl_param_st, ptr %34, i32 0, i32 1
  %36 = load i32, ptr %35, align 8, !tbaa !35
  %37 = icmp ne i32 %36, 4
  br i1 %37, label %38, label %39

38:                                               ; preds = %33, %24
  br label %101

39:                                               ; preds = %33
  %40 = load ptr, ptr %10, align 8, !tbaa !17
  %41 = getelementptr inbounds nuw %struct.ossl_param_st, ptr %40, i32 0, i32 2
  %42 = load ptr, ptr %41, align 8, !tbaa !37
  store ptr %42, ptr %11, align 8, !tbaa !4
  %43 = load ptr, ptr %5, align 8, !tbaa !17
  %44 = call ptr @OSSL_PARAM_locate_const(ptr noundef %43, ptr noundef @.str.25)
  store ptr %44, ptr %10, align 8, !tbaa !17
  %45 = load ptr, ptr %10, align 8, !tbaa !17
  %46 = icmp eq ptr %45, null
  br i1 %46, label %52, label %47

47:                                               ; preds = %39
  %48 = load ptr, ptr %10, align 8, !tbaa !17
  %49 = getelementptr inbounds nuw %struct.ossl_param_st, ptr %48, i32 0, i32 1
  %50 = load i32, ptr %49, align 8, !tbaa !35
  %51 = icmp ne i32 %50, 4
  br i1 %51, label %52, label %53

52:                                               ; preds = %47, %39
  br label %101

53:                                               ; preds = %47
  %54 = load ptr, ptr %10, align 8, !tbaa !17
  %55 = getelementptr inbounds nuw %struct.ossl_param_st, ptr %54, i32 0, i32 2
  %56 = load ptr, ptr %55, align 8, !tbaa !37
  store ptr %56, ptr %13, align 8, !tbaa !4
  %57 = load ptr, ptr %5, align 8, !tbaa !17
  %58 = call ptr @OSSL_PARAM_locate_const(ptr noundef %57, ptr noundef @.str.26)
  store ptr %58, ptr %10, align 8, !tbaa !17
  %59 = load ptr, ptr %10, align 8, !tbaa !17
  %60 = icmp eq ptr %59, null
  br i1 %60, label %66, label %61

61:                                               ; preds = %53
  %62 = load ptr, ptr %10, align 8, !tbaa !17
  %63 = getelementptr inbounds nuw %struct.ossl_param_st, ptr %62, i32 0, i32 1
  %64 = load i32, ptr %63, align 8, !tbaa !35
  %65 = icmp ne i32 %64, 4
  br i1 %65, label %66, label %67

66:                                               ; preds = %61, %53
  br label %101

67:                                               ; preds = %61
  %68 = load ptr, ptr %10, align 8, !tbaa !17
  %69 = getelementptr inbounds nuw %struct.ossl_param_st, ptr %68, i32 0, i32 2
  %70 = load ptr, ptr %69, align 8, !tbaa !37
  store ptr %70, ptr %12, align 8, !tbaa !4
  %71 = load ptr, ptr %11, align 8, !tbaa !4
  %72 = call i32 @strcmp(ptr noundef %71, ptr noundef @.str.27) #6
  %73 = icmp eq i32 %72, 0
  br i1 %73, label %74, label %79

74:                                               ; preds = %67
  %75 = load ptr, ptr @bio_out, align 8, !tbaa !33
  %76 = load ptr, ptr %13, align 8, !tbaa !4
  %77 = load ptr, ptr %12, align 8, !tbaa !4
  %78 = call i32 (ptr, ptr, ...) @BIO_printf(ptr noundef %75, ptr noundef @.str.28, ptr noundef %76, ptr noundef %77)
  br label %92

79:                                               ; preds = %67
  %80 = load ptr, ptr %11, align 8, !tbaa !4
  %81 = call i32 @strcmp(ptr noundef %80, ptr noundef @.str.29) #6
  %82 = icmp eq i32 %81, 0
  br i1 %82, label %87, label %83

83:                                               ; preds = %79
  %84 = load ptr, ptr %11, align 8, !tbaa !4
  %85 = call i32 @strcmp(ptr noundef %84, ptr noundef @.str.30) #6
  %86 = icmp eq i32 %85, 0
  br i1 %86, label %87, label %91

87:                                               ; preds = %83, %79
  %88 = load ptr, ptr @bio_out, align 8, !tbaa !33
  %89 = load ptr, ptr %11, align 8, !tbaa !4
  %90 = call i32 (ptr, ptr, ...) @BIO_printf(ptr noundef %88, ptr noundef @.str.31, ptr noundef %89)
  br label %91

91:                                               ; preds = %87, %83
  br label %92

92:                                               ; preds = %91, %74
  %93 = load i32, ptr %8, align 4, !tbaa !9
  %94 = icmp ne i32 %93, 0
  br i1 %94, label %95, label %100

95:                                               ; preds = %92
  %96 = load ptr, ptr %11, align 8, !tbaa !4
  %97 = call i32 @strcmp(ptr noundef %96, ptr noundef @.str.32) #6
  %98 = icmp eq i32 %97, 0
  br i1 %98, label %99, label %100

99:                                               ; preds = %95
  br label %101

100:                                              ; preds = %95, %92
  store i32 1, ptr %14, align 4, !tbaa !9
  br label %101

101:                                              ; preds = %100, %99, %66, %52, %38
  %102 = load i32, ptr %14, align 4, !tbaa !9
  call void @llvm.lifetime.end.p0(i64 4, ptr %14) #5
  call void @llvm.lifetime.end.p0(i64 8, ptr %13) #5
  call void @llvm.lifetime.end.p0(i64 8, ptr %12) #5
  call void @llvm.lifetime.end.p0(i64 8, ptr %11) #5
  call void @llvm.lifetime.end.p0(i64 8, ptr %10) #5
  call void @llvm.lifetime.end.p0(i64 8, ptr %9) #5
  ret i32 %102
}