; Function Attrs: nounwind uwtable
define internal fastcc range(i32 0, 2) i32 @self_test_events(ptr noundef %0, ptr noundef captures(none) %1, ptr noundef %2, i32 noundef range(i32 0, 2) %3) unnamed_addr #1 {
  %5 = load i32, ptr %1, align 4, !tbaa !13
  %6 = icmp eq i32 %5, 0
  br i1 %6, label %7, label %10

7:                                                ; preds = %4
  %8 = load ptr, ptr @bio_out, align 8, !tbaa !23
  %9 = tail call i32 (ptr, ptr, ...) @BIO_printf(ptr noundef %8, ptr noundef nonnull @.str.23, ptr noundef %2) #6
  %.pre = load i32, ptr %1, align 4, !tbaa !13
  br label %10

10:                                               ; preds = %7, %4
  %11 = phi i32 [ %.pre, %7 ], [ %5, %4 ]
  %12 = add nsw i32 %11, 1
  store i32 %12, ptr %1, align 4, !tbaa !13
  %13 = tail call ptr @OSSL_PARAM_locate_const(ptr noundef %0, ptr noundef nonnull @.str.24) #6
  %14 = icmp eq ptr %13, null
  br i1 %14, label %56, label %15

15:                                               ; preds = %10
  %16 = getelementptr inbounds nuw i8, ptr %13, i64 8
  %17 = load i32, ptr %16, align 8, !tbaa !25
  %.not = icmp eq i32 %17, 4
  br i1 %.not, label %18, label %56

18:                                               ; preds = %15
  %19 = getelementptr inbounds nuw i8, ptr %13, i64 16
  %20 = load ptr, ptr %19, align 8, !tbaa !27
  %21 = tail call ptr @OSSL_PARAM_locate_const(ptr noundef %0, ptr noundef nonnull @.str.25) #6
  %22 = icmp eq ptr %21, null
  br i1 %22, label %56, label %23

23:                                               ; preds = %18
  %24 = getelementptr inbounds nuw i8, ptr %21, i64 8
  %25 = load i32, ptr %24, align 8, !tbaa !25
  %.not27 = icmp eq i32 %25, 4
  br i1 %.not27, label %26, label %56

26:                                               ; preds = %23
  %27 = getelementptr inbounds nuw i8, ptr %21, i64 16
  %28 = load ptr, ptr %27, align 8, !tbaa !27
  %29 = tail call ptr @OSSL_PARAM_locate_const(ptr noundef %0, ptr noundef nonnull @.str.26) #6
  %30 = icmp eq ptr %29, null
  br i1 %30, label %56, label %31

31:                                               ; preds = %26
  %32 = getelementptr inbounds nuw i8, ptr %29, i64 8
  %33 = load i32, ptr %32, align 8, !tbaa !25
  %.not28 = icmp eq i32 %33, 4
  br i1 %.not28, label %34, label %56

34:                                               ; preds = %31
  %35 = tail call i32 @strcmp(ptr noundef nonnull dereferenceable(1) %20, ptr noundef nonnull dereferenceable(6) @.str.27) #7
  %36 = icmp eq i32 %35, 0
  br i1 %36, label %37, label %42

37:                                               ; preds = %34
  %38 = getelementptr inbounds nuw i8, ptr %29, i64 16
  %39 = load ptr, ptr %38, align 8, !tbaa !27
  %40 = load ptr, ptr @bio_out, align 8, !tbaa !23
  %41 = tail call i32 (ptr, ptr, ...) @BIO_printf(ptr noundef %40, ptr noundef nonnull @.str.28, ptr noundef %28, ptr noundef %39) #6
  br label %51

42:                                               ; preds = %34
  %43 = tail call i32 @strcmp(ptr noundef nonnull dereferenceable(1) %20, ptr noundef nonnull dereferenceable(5) @.str.29) #7
  %44 = icmp eq i32 %43, 0
  br i1 %44, label %48, label %45

45:                                               ; preds = %42
  %46 = tail call i32 @strcmp(ptr noundef nonnull dereferenceable(1) %20, ptr noundef nonnull dereferenceable(5) @.str.30) #7
  %47 = icmp eq i32 %46, 0
  br i1 %47, label %48, label %51

48:                                               ; preds = %45, %42
  %49 = load ptr, ptr @bio_out, align 8, !tbaa !23
  %50 = tail call i32 (ptr, ptr, ...) @BIO_printf(ptr noundef %49, ptr noundef nonnull @.str.31, ptr noundef nonnull %20) #6
  br label %51

51:                                               ; preds = %45, %48, %37
  %.not29 = icmp eq i32 %3, 0
  br i1 %.not29, label %55, label %52

52:                                               ; preds = %51
  %53 = tail call i32 @strcmp(ptr noundef nonnull dereferenceable(1) %20, ptr noundef nonnull dereferenceable(8) @.str.32) #7
  %54 = icmp eq i32 %53, 0
  br i1 %54, label %56, label %55

55:                                               ; preds = %52, %51
  br label %56

56:                                               ; preds = %52, %26, %31, %18, %23, %10, %15, %55
  %.0 = phi i32 [ 0, %10 ], [ 0, %15 ], [ 0, %18 ], [ 0, %23 ], [ 0, %26 ], [ 0, %31 ], [ 0, %52 ], [ 1, %55 ]
  ret i32 %.0
}